target datalayout = "e-m:e-p270:32:32-p271:32:32-p272:64:64-i64:64-i128:128-f80:128-n8:16:32:64-S128"
target triple = "x86_64-pc-linux-gnu"

%class.State = type { [315 x i32], [315 x i16], i32, ptr, [2 x ptr] }

; Function Attrs: mustprogress nounwind uwtable
define hidden void @_ZN5State22_sub_Op_MemBarVolatileEPK4Node(ptr noundef nonnull align 8 dereferenceable(1920) %0, ptr noundef %1) #1 align 2 {
  %3 = alloca ptr, align 8
  %4 = alloca ptr, align 8
  %5 = alloca i32, align 4
  %6 = alloca i32, align 4
  store ptr %0, ptr %3, align 8
  store ptr %1, ptr %4, align 8
  %7 = load ptr, ptr %3, align 8
  %8 = load ptr, ptr %4, align 8
  %9 = call noundef zeroext i1 @_ZN7Matcher23post_store_load_barrierEPK4Node(ptr noundef %8)
  br i1 %9, label %10, label %16

10:                                               ; preds = %2
  store i32 0, ptr %5, align 4
  %11 = load i32, ptr %5, align 4
  %12 = getelementptr inbounds %class.State, ptr %7, i32 0, i32 0
  %13 = getelementptr inbounds [315 x i32], ptr %12, i64 0, i64 0
  store i32 %11, ptr %13, align 8
  %14 = getelementptr inbounds %class.State, ptr %7, i32 0, i32 1
  %15 = getelementptr inbounds [315 x i16], ptr %14, i64 0, i64 0
  store i16 1307, ptr %15, align 4
  br label %16

16:                                               ; preds = %10, %2
  store i32 400, ptr %6, align 4
  %17 = getelementptr inbounds %class.State, ptr %7, i32 0, i32 1
  %18 = getelementptr inbounds [315 x i16], ptr %17, i64 0, i64 0
  %19 = load i16, ptr %18, align 4
  %20 = zext i16 %19 to i32
  %21 = and i32 %20, 1
  %22 = icmp eq i32 %21, 0
  br i1 %22, label %29, label %23

23:                                               ; preds = %16
  %24 = getelementptr inbounds %class.State, ptr %7, i32 0, i32 0
  %25 = getelementptr inbounds [315 x i32], ptr %24, i64 0, i64 0
  %26 = load i32, ptr %25, align 8
  %27 = load i32, ptr %6, align 4
  %28 = icmp ugt i32 %26, %27
  br i1 %28, label %29, label %35

29:                                               ; preds = %23, %16
  %30 = load i32, ptr %6, align 4
  %31 = getelementptr inbounds %class.State, ptr %7, i32 0, i32 0
  %32 = getelementptr inbounds [315 x i32], ptr %31, i64 0, i64 0
  store i32 %30, ptr %32, align 8
  %33 = getelementptr inbounds %class.State, ptr %7, i32 0, i32 1
  %34 = getelementptr inbounds [315 x i16], ptr %33, i64 0, i64 0
  store i16 735, ptr %34, align 4
  br label %35

35:                                               ; preds = %29, %23
  ret void
}