; Function Attrs: mustprogress nounwind uwtable
define hidden void @_ZN5State22_sub_Op_MemBarVolatileEPK4Node(ptr nocapture noundef nonnull align 8 dereferenceable(1920) %0, ptr noundef %1) local_unnamed_addr #2 align 2 {
  %3 = tail call noundef zeroext i1 @_ZN7Matcher23post_store_load_barrierEPK4Node(ptr noundef %1) #9
  br i1 %3, label %.thread, label %5

.thread:                                          ; preds = %2
  store i32 0, ptr %0, align 8
  %4 = getelementptr inbounds i8, ptr %0, i64 1260
  store i16 1307, ptr %4, align 4
  br label %12

5:                                                ; preds = %2
  %.phi.trans.insert = getelementptr inbounds i8, ptr %0, i64 1260
  %.pre = load i16, ptr %.phi.trans.insert, align 4
  %.pre5 = load i32, ptr %0, align 8
  %6 = and i16 %.pre, 1
  %7 = icmp eq i16 %6, 0
  %8 = icmp ugt i32 %.pre5, 400
  %9 = select i1 %7, i1 true, i1 %8
  br i1 %9, label %10, label %12

10:                                               ; preds = %5
  %11 = getelementptr inbounds i8, ptr %0, i64 1260
  store i32 400, ptr %0, align 8
  store i16 735, ptr %11, align 4
  br label %12

12:                                               ; preds = %.thread, %5, %10
  ret void
}